target datalayout = "e-m:e-p270:32:32-p271:32:32-p272:64:64-i64:64-i128:128-f80:128-n8:16:32:64-S128"
target triple = "x86_64-pc-linux-gnu"

%"struct.realclosure::mpbq_config::interval" = type { %class.mpbq, %class.mpbq, i8, i8, i8, i8, [4 x i8] }
%class.mpbq = type <{ %class.mpz, i32, [4 x i8] }>
%class.mpz = type { i32, i8, ptr }
%"struct.realclosure::extension" = type { i32, i32, %"struct.realclosure::mpbq_config::interval", ptr }
%"class.realclosure::manager" = type { ptr }
%"class.realclosure::num" = type { ptr }
%"struct.realclosure::value" = type { i32, i8, [3 x i8], %"struct.realclosure::mpbq_config::interval", ptr }
%"struct.realclosure::rational_function_value" = type <{ %"struct.realclosure::value", %class.ptr_array, %class.ptr_array, ptr, i8, [7 x i8] }>
%class.ptr_array = type { %class.array }
%class.array = type { ptr }
%"struct.realclosure::algebraic" = type <{ %"struct.realclosure::extension", %class.ptr_array, %"struct.realclosure::mpbq_config::interval", ptr, i32, i8, [3 x i8] }>
%"struct.realclosure::sign_det" = type { i32, %class.mpz_matrix, %class.array.10, %class.array.11, %class.array.12, %class.array.10 }
%class.mpz_matrix = type { i32, i32, ptr }
%class.array.11 = type { ptr }
%class.array.12 = type { ptr }
%class.array.10 = type { ptr }
%"struct.realclosure::sign_condition" = type { i32, i32, ptr }

; Function Attrs: mustprogress nounwind uwtable
define linkonce_odr hidden noundef zeroext i1 @_ZNK11realclosure5value11is_rationalEv(ptr noundef nonnull align 8 dereferenceable(72) %0) #4 comdat align 2 {
  %2 = alloca ptr, align 8
  store ptr %0, ptr %2, align 8, !tbaa !99
  %3 = load ptr, ptr %2, align 8
  %4 = getelementptr inbounds nuw %"struct.realclosure::value", ptr %3, i32 0, i32 1
  %5 = load i8, ptr %4, align 4, !tbaa !205, !range !109, !noundef !110
  %6 = trunc i8 %5 to i1
  ret i1 %6
}

; Function Attrs: mustprogress nounwind uwtable
define linkonce_odr hidden noundef i32 @_ZNK11realclosure9extension3kndEv(ptr noundef nonnull align 8 dereferenceable(72) %0) #4 comdat align 2 {
  %2 = alloca ptr, align 8
  store ptr %0, ptr %2, align 8, !tbaa !13
  %3 = load ptr, ptr %2, align 8
  %4 = getelementptr inbounds nuw %"struct.realclosure::extension", ptr %3, i32 0, i32 1
  %5 = load i32, ptr %4, align 4
  %6 = and i32 %5, 3
  ret i32 %6
}

; Function Attrs: mustprogress nounwind uwtable
define linkonce_odr hidden noundef zeroext i1 @_ZN11realclosure7manager3imp20is_rational_functionEPNS_5valueE(ptr noundef %0) #4 comdat align 2 {
  %2 = alloca ptr, align 8
  store ptr %0, ptr %2, align 8, !tbaa !99
  %3 = load ptr, ptr %2, align 8, !tbaa !99
  %4 = call noundef zeroext i1 @_ZNK11realclosure5value11is_rationalEv(ptr noundef nonnull align 8 dereferenceable(72) %3)
  %5 = xor i1 %4, true
  ret i1 %5
}

; Function Attrs: mustprogress nounwind uwtable
define linkonce_odr hidden noundef nonnull align 8 dereferenceable(8) ptr @_ZNK5arrayIPN11realclosure14sign_conditionELb1EEixEj(ptr noundef nonnull align 8 dereferenceable(8) %0, i32 noundef %1) #4 comdat align 2 {
  %3 = alloca ptr, align 8
  %4 = alloca i32, align 4
  store ptr %0, ptr %3, align 8, !tbaa !242
  store i32 %1, ptr %4, align 4, !tbaa !82
  %5 = load ptr, ptr %3, align 8
  %6 = getelementptr inbounds nuw %class.array.12, ptr %5, i32 0, i32 0
  %7 = load ptr, ptr %6, align 8, !tbaa !244
  %8 = load i32, ptr %4, align 4, !tbaa !82
  %9 = zext i32 %8 to i64
  %10 = getelementptr inbounds nuw ptr, ptr %7, i64 %9
  ret ptr %10
}

; Function Attrs: mustprogress nounwind uwtable
define linkonce_odr hidden noundef ptr @_ZN11realclosure7manager3imp20to_rational_functionEPNS_5valueE(ptr noundef %0) #4 comdat align 2 {
  %2 = alloca ptr, align 8
  store ptr %0, ptr %2, align 8, !tbaa !99
  %3 = load ptr, ptr %2, align 8, !tbaa !99
  ret ptr %3
}

; Function Attrs: mustprogress nounwind uwtable
define linkonce_odr hidden noundef zeroext i1 @_ZNK11realclosure9extension12is_algebraicEv(ptr noundef nonnull align 8 dereferenceable(72) %0) #4 comdat align 2 {
  %2 = alloca ptr, align 8
  store ptr %0, ptr %2, align 8, !tbaa !13
  %3 = load ptr, ptr %2, align 8
  %4 = call noundef i32 @_ZNK11realclosure9extension3kndEv(ptr noundef nonnull align 8 dereferenceable(72) %3)
  %5 = icmp eq i32 %4, 2
  ret i1 %5
}

; Function Attrs: mustprogress uwtable
define linkonce_odr hidden noundef zeroext i1 @_ZN11realclosure7manager3imp20is_rational_functionERKNS_3numE(ptr noundef nonnull align 8 dereferenceable(8) %0) #6 comdat align 2 {
  %2 = alloca ptr, align 8
  store ptr %0, ptr %2, align 8, !tbaa !76
  %3 = load ptr, ptr %2, align 8, !tbaa !76
  %4 = getelementptr inbounds nuw %"class.realclosure::num", ptr %3, i32 0, i32 0
  %5 = load ptr, ptr %4, align 8, !tbaa !78
  %6 = call noundef zeroext i1 @_ZN11realclosure7manager3imp20is_rational_functionEPNS_5valueE(ptr noundef %5)
  ret i1 %6
}

; Function Attrs: mustprogress nounwind uwtable
define linkonce_odr hidden noundef i32 @_ZNK5arrayIPN11realclosure5valueELb0EE4sizeEv(ptr noundef nonnull align 8 dereferenceable(8) %0) #4 comdat align 2 {
  %2 = alloca i32, align 4
  %3 = alloca ptr, align 8
  store ptr %0, ptr %3, align 8, !tbaa !220
  %4 = load ptr, ptr %3, align 8
  %5 = getelementptr inbounds nuw %class.array, ptr %4, i32 0, i32 0
  %6 = load ptr, ptr %5, align 8, !tbaa !222
  %7 = icmp eq ptr %6, null
  br i1 %7, label %8, label %9

8:                                                ; preds = %1
  store i32 0, ptr %2, align 4
  br label %15

9:                                                ; preds = %1
  %10 = getelementptr inbounds nuw %class.array, ptr %4, i32 0, i32 0
  %11 = load ptr, ptr %10, align 8, !tbaa !222
  %12 = getelementptr inbounds i64, ptr %11, i64 -1
  %13 = load i64, ptr %12, align 8, !tbaa !203
  %14 = trunc i64 %13 to i32
  store i32 %14, ptr %2, align 4
  br label %15

15:                                               ; preds = %9, %8
  %16 = load i32, ptr %2, align 4
  ret i32 %16
}

; Function Attrs: mustprogress nounwind uwtable
define linkonce_odr hidden noundef nonnull align 8 dereferenceable(8) ptr @_ZNK5arrayI9ptr_arrayIN11realclosure5valueEELb1EEixEj(ptr noundef nonnull align 8 dereferenceable(8) %0, i32 noundef %1) #4 comdat align 2 {
  %3 = alloca ptr, align 8
  %4 = alloca i32, align 4
  store ptr %0, ptr %3, align 8, !tbaa !245
  store i32 %1, ptr %4, align 4, !tbaa !82
  %5 = load ptr, ptr %3, align 8
  %6 = getelementptr inbounds nuw %class.array.10, ptr %5, i32 0, i32 0
  %7 = load ptr, ptr %6, align 8, !tbaa !261
  %8 = load i32, ptr %4, align 4, !tbaa !82
  %9 = zext i32 %8 to i64
  %10 = getelementptr inbounds nuw %class.ptr_array, ptr %7, i64 %9
  ret ptr %10
}

; Function Attrs: mustprogress nounwind uwtable
define linkonce_odr hidden noundef i32 @_ZNK11realclosure14sign_condition4qidxEv(ptr noundef nonnull align 8 dereferenceable(16) %0) #4 comdat align 2 {
  %2 = alloca ptr, align 8
  store ptr %0, ptr %2, align 8, !tbaa !116
  %3 = load ptr, ptr %2, align 8
  %4 = load i32, ptr %3, align 8
  %5 = and i32 %4, 2147483647
  ret i32 %5
}

; Function Attrs: mustprogress nounwind uwtable
define linkonce_odr hidden noundef nonnull align 8 dereferenceable(8) ptr @_ZNK11realclosure8sign_det2qsEv(ptr noundef nonnull align 8 dereferenceable(56) %0) #4 comdat align 2 {
  %2 = alloca ptr, align 8
  store ptr %0, ptr %2, align 8, !tbaa !114
  %3 = load ptr, ptr %2, align 8
  %4 = getelementptr inbounds nuw %"struct.realclosure::sign_det", ptr %3, i32 0, i32 5
  ret ptr %4
}

; Function Attrs: mustprogress nounwind uwtable
define linkonce_odr hidden noundef ptr @_ZNK11realclosure14sign_condition4prevEv(ptr noundef nonnull align 8 dereferenceable(16) %0) #4 comdat align 2 {
  %2 = alloca ptr, align 8
  store ptr %0, ptr %2, align 8, !tbaa !116
  %3 = load ptr, ptr %2, align 8
  %4 = getelementptr inbounds nuw %"struct.realclosure::sign_condition", ptr %3, i32 0, i32 2
  %5 = load ptr, ptr %4, align 8, !tbaa !237
  ret ptr %5
}

; Function Attrs: mustprogress uwtable
define linkonce_odr hidden noundef ptr @_ZNK11realclosure8sign_det2scEj(ptr noundef nonnull align 8 dereferenceable(56) %0, i32 noundef %1) #6 comdat align 2 {
  %3 = alloca ptr, align 8
  %4 = alloca i32, align 4
  store ptr %0, ptr %3, align 8, !tbaa !114
  store i32 %1, ptr %4, align 4, !tbaa !82
  %5 = load ptr, ptr %3, align 8
  %6 = getelementptr inbounds nuw %"struct.realclosure::sign_det", ptr %5, i32 0, i32 4
  %7 = load i32, ptr %4, align 4, !tbaa !82
  %8 = call noundef nonnull align 8 dereferenceable(8) ptr @_ZNK5arrayIPN11realclosure14sign_conditionELb1EEixEj(ptr noundef nonnull align 8 dereferenceable(8) %6, i32 noundef %7)
  %9 = load ptr, ptr %8, align 8, !tbaa !116
  ret ptr %9
}

; Function Attrs: mustprogress nounwind uwtable
define linkonce_odr hidden noundef i32 @_ZNK11realclosure9algebraic6sc_idxEv(ptr noundef nonnull align 8 dereferenceable(149) %0) #4 comdat align 2 {
  %2 = alloca ptr, align 8
  store ptr %0, ptr %2, align 8, !tbaa !112
  %3 = load ptr, ptr %2, align 8
  %4 = getelementptr inbounds nuw %"struct.realclosure::algebraic", ptr %3, i32 0, i32 4
  %5 = load i32, ptr %4, align 8, !tbaa !358
  ret i32 %5
}

; Function Attrs: mustprogress nounwind uwtable
define linkonce_odr hidden noundef ptr @_ZNK11realclosure9algebraic3sdtEv(ptr noundef nonnull align 8 dereferenceable(149) %0) #4 comdat align 2 {
  %2 = alloca ptr, align 8
  store ptr %0, ptr %2, align 8, !tbaa !112
  %3 = load ptr, ptr %2, align 8
  %4 = getelementptr inbounds nuw %"struct.realclosure::algebraic", ptr %3, i32 0, i32 3
  %5 = load ptr, ptr %4, align 8, !tbaa !227
  ret ptr %5
}

; Function Attrs: mustprogress nounwind uwtable
define linkonce_odr hidden noundef ptr @_ZN11realclosure7manager3imp12to_algebraicEPNS_9extensionE(ptr noundef %0) #4 comdat align 2 {
  %2 = alloca ptr, align 8
  store ptr %0, ptr %2, align 8, !tbaa !13
  %3 = load ptr, ptr %2, align 8, !tbaa !13
  ret ptr %3
}

; Function Attrs: mustprogress nounwind uwtable
define linkonce_odr hidden noundef ptr @_ZNK11realclosure23rational_function_value3extEv(ptr noundef nonnull align 8 dereferenceable(97) %0) #4 comdat align 2 {
  %2 = alloca ptr, align 8
  store ptr %0, ptr %2, align 8, !tbaa !92
  %3 = load ptr, ptr %2, align 8
  %4 = getelementptr inbounds nuw %"struct.realclosure::rational_function_value", ptr %3, i32 0, i32 3
  %5 = load ptr, ptr %4, align 8, !tbaa !215
  ret ptr %5
}

; Function Attrs: mustprogress nounwind uwtable
define linkonce_odr hidden noundef ptr @_ZN11realclosure7manager3imp20to_rational_functionERKNS_3numE(ptr noundef nonnull align 8 dereferenceable(8) %0) #4 comdat align 2 {
  %2 = alloca ptr, align 8
  store ptr %0, ptr %2, align 8, !tbaa !76
  %3 = load ptr, ptr %2, align 8, !tbaa !76
  %4 = getelementptr inbounds nuw %"class.realclosure::num", ptr %3, i32 0, i32 0
  %5 = load ptr, ptr %4, align 8, !tbaa !78
  %6 = call noundef ptr @_ZN11realclosure7manager3imp20to_rational_functionEPNS_5valueE(ptr noundef %5)
  ret ptr %6
}

; Function Attrs: mustprogress uwtable
define linkonce_odr hidden noundef zeroext i1 @_ZN11realclosure7manager3imp12is_algebraicERKNS_3numE(ptr noundef nonnull align 8 dereferenceable(1497) %0, ptr noundef nonnull align 8 dereferenceable(8) %1) #6 comdat align 2 {
  %3 = alloca ptr, align 8
  %4 = alloca ptr, align 8
  store ptr %0, ptr %3, align 8, !tbaa !28
  store ptr %1, ptr %4, align 8, !tbaa !76
  %5 = load ptr, ptr %4, align 8, !tbaa !76
  %6 = call noundef zeroext i1 @_ZN11realclosure7manager3imp20is_rational_functionERKNS_3numE(ptr noundef nonnull align 8 dereferenceable(8) %5)
  br i1 %6, label %7, label %12

7:                                                ; preds = %2
  %8 = load ptr, ptr %4, align 8, !tbaa !76
  %9 = call noundef ptr @_ZN11realclosure7manager3imp20to_rational_functionERKNS_3numE(ptr noundef nonnull align 8 dereferenceable(8) %8)
  %10 = call noundef ptr @_ZNK11realclosure23rational_function_value3extEv(ptr noundef nonnull align 8 dereferenceable(97) %9)
  %11 = call noundef zeroext i1 @_ZNK11realclosure9extension12is_algebraicEv(ptr noundef nonnull align 8 dereferenceable(72) %10)
  br label %12

12:                                               ; preds = %7, %2
  %13 = phi i1 [ false, %2 ], [ %11, %7 ]
  ret i1 %13
}

; Function Attrs: mustprogress uwtable
define linkonce_odr hidden noundef i32 @_ZN11realclosure7manager3imp31num_sign_condition_coefficientsERKNS_3numEj(ptr noundef nonnull align 8 dereferenceable(1497) %0, ptr noundef nonnull align 8 dereferenceable(8) %1, i32 noundef %2) #6 comdat align 2 {
  %4 = alloca i32, align 4
  %5 = alloca ptr, align 8
  %6 = alloca ptr, align 8
  %7 = alloca i32, align 4
  %8 = alloca ptr, align 8
  %9 = alloca ptr, align 8
  %10 = alloca i32, align 4
  %11 = alloca ptr, align 8
  %12 = alloca ptr, align 8
  store ptr %0, ptr %5, align 8, !tbaa !28
  store ptr %1, ptr %6, align 8, !tbaa !76
  store i32 %2, ptr %7, align 4, !tbaa !82
  %13 = load ptr, ptr %5, align 8
  %14 = load ptr, ptr %6, align 8, !tbaa !76
  %15 = call noundef zeroext i1 @_ZN11realclosure7manager3imp12is_algebraicERKNS_3numE(ptr noundef nonnull align 8 dereferenceable(1497) %13, ptr noundef nonnull align 8 dereferenceable(8) %14)
  br i1 %15, label %17, label %16

16:                                               ; preds = %3
  store i32 0, ptr %4, align 4
  br label %54

17:                                               ; preds = %3
  call void @llvm.lifetime.start.p0(i64 8, ptr %8) #3
  %18 = load ptr, ptr %6, align 8, !tbaa !76
  %19 = call noundef ptr @_ZN11realclosure7manager3imp20to_rational_functionERKNS_3numE(ptr noundef nonnull align 8 dereferenceable(8) %18)
  %20 = call noundef ptr @_ZNK11realclosure23rational_function_value3extEv(ptr noundef nonnull align 8 dereferenceable(97) %19)
  %21 = call noundef ptr @_ZN11realclosure7manager3imp12to_algebraicEPNS_9extensionE(ptr noundef %20)
  store ptr %21, ptr %8, align 8, !tbaa !112
  call void @llvm.lifetime.start.p0(i64 8, ptr %9) #3
  %22 = load ptr, ptr %8, align 8, !tbaa !112
  %23 = call noundef ptr @_ZNK11realclosure9algebraic3sdtEv(ptr noundef nonnull align 8 dereferenceable(149) %22)
  store ptr %23, ptr %9, align 8, !tbaa !114
  %24 = load ptr, ptr %9, align 8, !tbaa !114
  %25 = icmp ne ptr %24, null
  br i1 %25, label %27, label %26

26:                                               ; preds = %17
  store i32 0, ptr %4, align 4
  store i32 1, ptr %10, align 4
  br label %53

27:                                               ; preds = %17
  call void @llvm.lifetime.start.p0(i64 8, ptr %11) #3
  %28 = load ptr, ptr %9, align 8, !tbaa !114
  %29 = load ptr, ptr %8, align 8, !tbaa !112
  %30 = call noundef i32 @_ZNK11realclosure9algebraic6sc_idxEv(ptr noundef nonnull align 8 dereferenceable(149) %29)
  %31 = call noundef ptr @_ZNK11realclosure8sign_det2scEj(ptr noundef nonnull align 8 dereferenceable(56) %28, i32 noundef %30)
  store ptr %31, ptr %11, align 8, !tbaa !116
  br label %32

32:                                               ; preds = %41, %27
  %33 = load i32, ptr %7, align 4, !tbaa !82
  %34 = icmp ne i32 %33, 0
  br i1 %34, label %35, label %44

35:                                               ; preds = %32
  %36 = load ptr, ptr %11, align 8, !tbaa !116
  %37 = icmp ne ptr %36, null
  br i1 %37, label %38, label %41

38:                                               ; preds = %35
  %39 = load ptr, ptr %11, align 8, !tbaa !116
  %40 = call noundef ptr @_ZNK11realclosure14sign_condition4prevEv(ptr noundef nonnull align 8 dereferenceable(16) %39)
  store ptr %40, ptr %11, align 8, !tbaa !116
  br label %41

41:                                               ; preds = %38, %35
  %42 = load i32, ptr %7, align 4, !tbaa !82
  %43 = add i32 %42, -1
  store i32 %43, ptr %7, align 4, !tbaa !82
  br label %32, !llvm.loop !123

44:                                               ; preds = %32
  call void @llvm.lifetime.start.p0(i64 8, ptr %12) #3
  %45 = load ptr, ptr %8, align 8, !tbaa !112
  %46 = call noundef ptr @_ZNK11realclosure9algebraic3sdtEv(ptr noundef nonnull align 8 dereferenceable(149) %45)
  %47 = call noundef nonnull align 8 dereferenceable(8) ptr @_ZNK11realclosure8sign_det2qsEv(ptr noundef nonnull align 8 dereferenceable(56) %46)
  %48 = load ptr, ptr %11, align 8, !tbaa !116
  %49 = call noundef i32 @_ZNK11realclosure14sign_condition4qidxEv(ptr noundef nonnull align 8 dereferenceable(16) %48)
  %50 = call noundef nonnull align 8 dereferenceable(8) ptr @_ZNK5arrayI9ptr_arrayIN11realclosure5valueEELb1EEixEj(ptr noundef nonnull align 8 dereferenceable(8) %47, i32 noundef %49)
  store ptr %50, ptr %12, align 8, !tbaa !124
  %51 = load ptr, ptr %12, align 8, !tbaa !124
  %52 = call noundef i32 @_ZNK5arrayIPN11realclosure5valueELb0EE4sizeEv(ptr noundef nonnull align 8 dereferenceable(8) %51)
  store i32 %52, ptr %4, align 4
  store i32 1, ptr %10, align 4
  call void @llvm.lifetime.end.p0(i64 8, ptr %12) #3
  call void @llvm.lifetime.end.p0(i64 8, ptr %11) #3
  br label %53

53:                                               ; preds = %44, %26
  call void @llvm.lifetime.end.p0(i64 8, ptr %9) #3
  call void @llvm.lifetime.end.p0(i64 8, ptr %8) #3
  br label %54

54:                                               ; preds = %53, %16
  %55 = load i32, ptr %4, align 4
  ret i32 %55
}

; Function Attrs: mustprogress uwtable
define hidden noundef i32 @_ZN11realclosure7manager31num_sign_condition_coefficientsERKNS_3numEj(ptr noundef nonnull align 8 dereferenceable(8) %0, ptr noundef nonnull align 8 dereferenceable(8) %1, i32 noundef %2) #6 align 2 {
  %4 = alloca ptr, align 8
  %5 = alloca ptr, align 8
  %6 = alloca i32, align 4
  store ptr %0, ptr %4, align 8, !tbaa !15
  store ptr %1, ptr %5, align 8, !tbaa !76
  store i32 %2, ptr %6, align 4, !tbaa !82
  %7 = load ptr, ptr %4, align 8
  %8 = getelementptr inbounds nuw %"class.realclosure::manager", ptr %7, i32 0, i32 0
  %9 = load ptr, ptr %8, align 8, !tbaa !25
  %10 = load ptr, ptr %5, align 8, !tbaa !76
  %11 = load i32, ptr %6, align 4, !tbaa !82
  %12 = call noundef i32 @_ZN11realclosure7manager3imp31num_sign_condition_coefficientsERKNS_3numEj(ptr noundef nonnull align 8 dereferenceable(1497) %9, ptr noundef nonnull align 8 dereferenceable(8) %10, i32 noundef %11)
  ret i32 %12
}